target datalayout = "e-m:e-p270:32:32-p271:32:32-p272:64:64-i64:64-i128:128-f80:128-n8:16:32:64-S128"
target triple = "x86_64-pc-linux-gnu"

%struct.parser_st_table = type { i8, i8, i8, i32, ptr, i64, ptr, i64, i64, ptr }
%struct.parser_st_table_entry = type { i64, i64, i64 }

; Function Attrs: inlinehint nounwind sspstrong uwtable
define internal i64 @st_general_values(ptr noundef %0, ptr noundef %1, i64 noundef %2) #3 {
  %4 = alloca ptr, align 8
  %5 = alloca ptr, align 8
  %6 = alloca i64, align 8
  %7 = alloca i64, align 8
  %8 = alloca i64, align 8
  %9 = alloca ptr, align 8
  %10 = alloca ptr, align 8
  %11 = alloca ptr, align 8
  %12 = alloca ptr, align 8
  store ptr %0, ptr %4, align 8, !tbaa !7
  store ptr %1, ptr %5, align 8, !tbaa !35
  store i64 %2, ptr %6, align 8, !tbaa !14
  call void @llvm.lifetime.start.p0(i64 8, ptr %7) #14
  call void @llvm.lifetime.start.p0(i64 8, ptr %8) #14
  call void @llvm.lifetime.start.p0(i64 8, ptr %9) #14
  call void @llvm.lifetime.start.p0(i64 8, ptr %10) #14
  call void @llvm.lifetime.start.p0(i64 8, ptr %11) #14
  call void @llvm.lifetime.start.p0(i64 8, ptr %12) #14
  %13 = load ptr, ptr %4, align 8, !tbaa !7
  %14 = getelementptr inbounds nuw %struct.parser_st_table, ptr %13, i32 0, i32 9
  %15 = load ptr, ptr %14, align 8, !tbaa !29
  store ptr %15, ptr %12, align 8, !tbaa !40
  %16 = load ptr, ptr %5, align 8, !tbaa !35
  store ptr %16, ptr %9, align 8, !tbaa !35
  %17 = load ptr, ptr %5, align 8, !tbaa !35
  %18 = load i64, ptr %6, align 8, !tbaa !14
  %19 = getelementptr i64, ptr %17, i64 %18
  store ptr %19, ptr %10, align 8, !tbaa !35
  %20 = load ptr, ptr %4, align 8, !tbaa !7
  %21 = getelementptr inbounds nuw %struct.parser_st_table, ptr %20, i32 0, i32 8
  %22 = load i64, ptr %21, align 8, !tbaa !33
  store i64 %22, ptr %8, align 8, !tbaa !14
  %23 = load ptr, ptr %4, align 8, !tbaa !7
  %24 = getelementptr inbounds nuw %struct.parser_st_table, ptr %23, i32 0, i32 7
  %25 = load i64, ptr %24, align 8, !tbaa !34
  store i64 %25, ptr %7, align 8, !tbaa !14
  br label %26

26:                                               ; preds = %50, %3
  %27 = load i64, ptr %7, align 8, !tbaa !14
  %28 = load i64, ptr %8, align 8, !tbaa !14
  %29 = icmp ult i64 %27, %28
  br i1 %29, label %30, label %53

30:                                               ; preds = %26
  %31 = load ptr, ptr %5, align 8, !tbaa !35
  %32 = load ptr, ptr %10, align 8, !tbaa !35
  %33 = icmp eq ptr %31, %32
  br i1 %33, label %34, label %35

34:                                               ; preds = %30
  br label %53

35:                                               ; preds = %30
  %36 = load ptr, ptr %12, align 8, !tbaa !40
  %37 = load i64, ptr %7, align 8, !tbaa !14
  %38 = getelementptr %struct.parser_st_table_entry, ptr %36, i64 %37
  store ptr %38, ptr %11, align 8, !tbaa !40
  %39 = load ptr, ptr %11, align 8, !tbaa !40
  %40 = getelementptr inbounds nuw %struct.parser_st_table_entry, ptr %39, i32 0, i32 0
  %41 = load i64, ptr %40, align 8, !tbaa !41
  %42 = icmp eq i64 %41, -1
  br i1 %42, label %49, label %43

43:                                               ; preds = %35
  %44 = load ptr, ptr %11, align 8, !tbaa !40
  %45 = getelementptr inbounds nuw %struct.parser_st_table_entry, ptr %44, i32 0, i32 2
  %46 = load i64, ptr %45, align 8, !tbaa !36
  %47 = load ptr, ptr %5, align 8, !tbaa !35
  %48 = getelementptr i64, ptr %47, i32 1
  store ptr %48, ptr %5, align 8, !tbaa !35
  store i64 %46, ptr %47, align 8, !tbaa !14
  br label %49

49:                                               ; preds = %43, %35
  br label %50

50:                                               ; preds = %49
  %51 = load i64, ptr %7, align 8, !tbaa !14
  %52 = add i64 %51, 1
  store i64 %52, ptr %7, align 8, !tbaa !14
  br label %26, !llvm.loop !60

53:                                               ; preds = %34, %26
  %54 = load ptr, ptr %5, align 8, !tbaa !35
  %55 = load ptr, ptr %9, align 8, !tbaa !35
  %56 = ptrtoint ptr %54 to i64
  %57 = ptrtoint ptr %55 to i64
  %58 = sub i64 %56, %57
  %59 = sdiv exact i64 %58, 8
  call void @llvm.lifetime.end.p0(i64 8, ptr %12) #14
  call void @llvm.lifetime.end.p0(i64 8, ptr %11) #14
  call void @llvm.lifetime.end.p0(i64 8, ptr %10) #14
  call void @llvm.lifetime.end.p0(i64 8, ptr %9) #14
  call void @llvm.lifetime.end.p0(i64 8, ptr %8) #14
  call void @llvm.lifetime.end.p0(i64 8, ptr %7) #14
  ret i64 %59
}

; Function Attrs: nounwind sspstrong uwtable
define dso_local i64 @rb_parser_st_values(ptr noundef %0, ptr noundef %1, i64 noundef %2) #0 {
  %4 = alloca ptr, align 8
  %5 = alloca ptr, align 8
  %6 = alloca i64, align 8
  store ptr %0, ptr %4, align 8, !tbaa !7
  store ptr %1, ptr %5, align 8, !tbaa !35
  store i64 %2, ptr %6, align 8, !tbaa !14
  %7 = load ptr, ptr %4, align 8, !tbaa !7
  %8 = load ptr, ptr %5, align 8, !tbaa !35
  %9 = load i64, ptr %6, align 8, !tbaa !14
  %10 = call i64 @st_general_values(ptr noundef %7, ptr noundef %8, i64 noundef %9)
  ret i64 %10
}